target datalayout = "e-m:e-p270:32:32-p271:32:32-p272:64:64-i64:64-i128:128-f80:128-n8:16:32:64-S128"
target triple = "x86_64-pc-linux-gnu"

@.str.3 = private unnamed_addr constant [2 x i8] c"\0A\00", align 1
@.str.4 = private unnamed_addr constant [22 x i8] c"Verification failed!\0A\00", align 1

; Function Attrs: nounwind uwtable
define void @If_Dec6Verify(i64 noundef %0, i64 noundef %1) #0 {
  %3 = alloca i64, align 8
  %4 = alloca i64, align 8
  %5 = alloca i64, align 8
  store i64 %0, ptr %3, align 8, !tbaa !3
  store i64 %1, ptr %4, align 8, !tbaa !3
  call void @llvm.lifetime.start.p0(i64 8, ptr %5) #7
  %6 = load i64, ptr %4, align 8, !tbaa !3
  %7 = call i64 @If_Dec6Truth(i64 noundef %6)
  store i64 %7, ptr %5, align 8, !tbaa !3
  %8 = load i64, ptr %5, align 8, !tbaa !3
  %9 = load i64, ptr %3, align 8, !tbaa !3
  %10 = icmp ne i64 %8, %9
  br i1 %10, label %11, label %16

11:                                               ; preds = %2
  %12 = load i64, ptr %4, align 8, !tbaa !3
  call void @If_DecPrintConfig(i64 noundef %12)
  call void @Kit_DsdPrintFromTruth(ptr noundef %3, i32 noundef 6)
  %13 = call i32 (ptr, ...) @printf(ptr noundef @.str.3)
  call void @Kit_DsdPrintFromTruth(ptr noundef %5, i32 noundef 6)
  %14 = call i32 (ptr, ...) @printf(ptr noundef @.str.3)
  %15 = call i32 (ptr, ...) @printf(ptr noundef @.str.4)
  br label %16

16:                                               ; preds = %11, %2
  call void @llvm.lifetime.end.p0(i64 8, ptr %5) #7
  ret void
}