; Function Attrs: nounwind uwtable
define void @If_Dec6Verify(i64 noundef %0, i64 noundef %1) local_unnamed_addr #0 {
  %3 = alloca i64, align 8
  %4 = alloca i64, align 8
  store i64 %0, ptr %3, align 8, !tbaa !10
  call void @llvm.lifetime.start.p0(i64 8, ptr nonnull %4) #14
  %5 = tail call i64 @If_Dec6Truth(i64 noundef %1)
  store i64 %5, ptr %4, align 8, !tbaa !10
  %.not = icmp eq i64 %5, %0
  br i1 %.not, label %7, label %6

6:                                                ; preds = %2
  tail call void @If_DecPrintConfig(i64 noundef %1)
  call void @Kit_DsdPrintFromTruth(ptr noundef nonnull %3, i32 noundef 6) #14
  %putchar = call i32 @putchar(i32 10)
  call void @Kit_DsdPrintFromTruth(ptr noundef nonnull %4, i32 noundef 6) #14
  %putchar2 = call i32 @putchar(i32 10)
  %puts = call i32 @puts(ptr nonnull dereferenceable(1) @str.1)
  br label %7

7:                                                ; preds = %6, %2
  call void @llvm.lifetime.end.p0(i64 8, ptr nonnull %4) #14
  ret void
}